(dp1
S'MS_Connect'
p2
I200005
sS'AfterInitServer'
p3
I100001
sS'MS_Disconnection'
p4
I200000
sS'AfterInitScript'
p5
I100000
sS'AfterConnectServer'
p6
I100005
sS'MS_AddGateWayProcess'
p7
I200006
sS'BeforeLostClient'
p8
I100002
sS'AfterLostProcess'
p9
I100004
sS'AfterSecond'
p10
I100003
sS'MS_HeartBeat'
p11
I200004
s.